; Function Attrs: nounwind uwtable
define noalias nonnull ptr @l_Lean_Elab_Command_getBracketedBinderIds___lambda__1(ptr noundef %0, ptr noundef readnone captures(none) %1, ptr noundef readnone captures(none) %2, ptr noundef readnone captures(none) %3, ptr noundef readnone captures(none) %4, ptr noundef %5) local_unnamed_addr #0 {
  %7 = tail call ptr @l_Lean_Syntax_getArgs(ptr noundef %0) #6
  %8 = getelementptr i8, ptr %7, i64 8
  %.val = load i64, ptr %8, align 8, !tbaa !11
  %9 = tail call ptr @l_Array_mapMUnsafe_map___at_Lean_Elab_Command_getBracketedBinderIds___spec__2(i64 noundef %.val, i64 noundef 0, ptr noundef %7)
  tail call void @lean_inc_heartbeat() #6
  %10 = tail call noalias ptr @mi_malloc_small(i64 noundef 24) #6
  %11 = icmp eq ptr %10, null
  br i1 %11, label %12, label %lean_alloc_ctor.exit

12:                                               ; preds = %6
  tail call void @lean_internal_panic_out_of_memory() #7
  unreachable

lean_alloc_ctor.exit:                             ; preds = %6
  %13 = getelementptr inbounds nuw i8, ptr %10, i64 4
  store i32 1, ptr %10, align 4, !tbaa !4
  store i32 131096, ptr %13, align 4
  %14 = getelementptr inbounds nuw i8, ptr %10, i64 8
  store ptr %9, ptr %14, align 8, !tbaa !9
  %15 = getelementptr inbounds nuw i8, ptr %10, i64 16
  store ptr %5, ptr %15, align 8, !tbaa !9
  ret ptr %10
}